target datalayout = "e-m:e-p270:32:32-p271:32:32-p272:64:64-i64:64-i128:128-f80:128-n8:16:32:64-S128"
target triple = "x86_64-pc-linux-gnu"

%struct._lv_font_manager_recycle_t = type { %struct.lv_ll_t, i32 }
%struct.lv_ll_t = type { i32, ptr, ptr }
%struct.lv_font_recycle_t = type { %struct.lv_freetype_info_t, [32 x i8], ptr }
%struct.lv_freetype_info_t = type { ptr, i32, i32, i32 }

; Function Attrs: nounwind uwtable
define internal void @lv_font_recycle_close(ptr noundef %0, ptr noundef %1) #0 {
  %3 = alloca ptr, align 8
  %4 = alloca ptr, align 8
  store ptr %0, ptr %3, align 8, !tbaa !7
  store ptr %1, ptr %4, align 8, !tbaa !7
  br label %5

5:                                                ; preds = %2
  %6 = load ptr, ptr %3, align 8, !tbaa !7
  %7 = icmp ne ptr %6, null
  br i1 %7, label %12, label %8

8:                                                ; preds = %5
  br label %9

9:                                                ; preds = %8
  br label %10

10:                                               ; preds = %9
  br label %11

11:                                               ; preds = %10, %11
  br label %11

12:                                               ; preds = %5
  br label %13

13:                                               ; preds = %12
  br label %14

14:                                               ; preds = %13
  %15 = load ptr, ptr %4, align 8, !tbaa !7
  %16 = icmp ne ptr %15, null
  br i1 %16, label %21, label %17

17:                                               ; preds = %14
  br label %18

18:                                               ; preds = %17
  br label %19

19:                                               ; preds = %18
  br label %20

20:                                               ; preds = %19, %20
  br label %20

21:                                               ; preds = %14
  br label %22

22:                                               ; preds = %21
  br label %23

23:                                               ; preds = %22
  br label %24

24:                                               ; preds = %23
  %25 = load ptr, ptr %4, align 8, !tbaa !7
  %26 = getelementptr inbounds nuw %struct.lv_font_recycle_t, ptr %25, i32 0, i32 2
  %27 = load ptr, ptr %26, align 8, !tbaa !14
  call void @lv_freetype_font_delete(ptr noundef %27)
  %28 = load ptr, ptr %3, align 8, !tbaa !7
  %29 = getelementptr inbounds nuw %struct._lv_font_manager_recycle_t, ptr %28, i32 0, i32 0
  %30 = load ptr, ptr %4, align 8, !tbaa !7
  call void @lv_ll_remove(ptr noundef %29, ptr noundef %30)
  %31 = load ptr, ptr %4, align 8, !tbaa !7
  call void @lv_free(ptr noundef %31)
  ret void
}

; Function Attrs: inlinehint nounwind uwtable
define internal void @lv_memzero(ptr noundef %0, i64 noundef %1) #3 {
  %3 = alloca ptr, align 8
  %4 = alloca i64, align 8
  store ptr %0, ptr %3, align 8, !tbaa !7
  store i64 %1, ptr %4, align 8, !tbaa !22
  %5 = load ptr, ptr %3, align 8, !tbaa !7
  %6 = load i64, ptr %4, align 8, !tbaa !22
  call void @lv_memset(ptr noundef %5, i8 noundef zeroext 0, i64 noundef %6)
  ret void
}

; Function Attrs: nounwind uwtable
define internal void @lv_font_manager_recycle_remove_tail(ptr noundef %0) #0 {
  %2 = alloca ptr, align 8
  %3 = alloca ptr, align 8
  store ptr %0, ptr %2, align 8, !tbaa !7
  call void @llvm.lifetime.start.p0(i64 8, ptr %3) #5
  %4 = load ptr, ptr %2, align 8, !tbaa !7
  %5 = getelementptr inbounds nuw %struct._lv_font_manager_recycle_t, ptr %4, i32 0, i32 0
  %6 = call ptr @lv_ll_get_tail(ptr noundef %5)
  store ptr %6, ptr %3, align 8, !tbaa !7
  br label %7

7:                                                ; preds = %1
  %8 = load ptr, ptr %3, align 8, !tbaa !7
  %9 = icmp ne ptr %8, null
  br i1 %9, label %16, label %10

10:                                               ; preds = %7
  br label %11

11:                                               ; preds = %10
  br label %12

12:                                               ; preds = %11
  br label %13

13:                                               ; preds = %12
  br label %14

14:                                               ; preds = %15, %13
  br label %15

15:                                               ; preds = %14
  br label %14

16:                                               ; preds = %7
  br label %17

17:                                               ; preds = %16
  br label %18

18:                                               ; preds = %17
  %19 = load ptr, ptr %2, align 8, !tbaa !7
  %20 = load ptr, ptr %3, align 8, !tbaa !7
  call void @lv_font_recycle_close(ptr noundef %19, ptr noundef %20)
  call void @llvm.lifetime.end.p0(i64 8, ptr %3) #5
  ret void
}

; Function Attrs: nounwind uwtable
define void @lv_font_manager_recycle_set_reuse(ptr noundef %0, ptr noundef %1, ptr noundef %2) #0 {
  %4 = alloca ptr, align 8
  %5 = alloca ptr, align 8
  %6 = alloca ptr, align 8
  %7 = alloca ptr, align 8
  %8 = alloca ptr, align 8
  store ptr %0, ptr %4, align 8, !tbaa !7
  store ptr %1, ptr %5, align 8, !tbaa !7
  store ptr %2, ptr %6, align 8, !tbaa !7
  br label %9

9:                                                ; preds = %3
  %10 = load ptr, ptr %4, align 8, !tbaa !7
  %11 = icmp ne ptr %10, null
  br i1 %11, label %16, label %12

12:                                               ; preds = %9
  br label %13

13:                                               ; preds = %12
  br label %14

14:                                               ; preds = %13
  br label %15

15:                                               ; preds = %14, %15
  br label %15

16:                                               ; preds = %9
  br label %17

17:                                               ; preds = %16
  br label %18

18:                                               ; preds = %17
  %19 = load ptr, ptr %6, align 8, !tbaa !7
  %20 = icmp ne ptr %19, null
  br i1 %20, label %25, label %21

21:                                               ; preds = %18
  br label %22

22:                                               ; preds = %21
  br label %23

23:                                               ; preds = %22
  br label %24

24:                                               ; preds = %23, %24
  br label %24

25:                                               ; preds = %18
  br label %26

26:                                               ; preds = %25
  call void @llvm.lifetime.start.p0(i64 8, ptr %7) #5
  %27 = load ptr, ptr %4, align 8, !tbaa !7
  %28 = getelementptr inbounds nuw %struct._lv_font_manager_recycle_t, ptr %27, i32 0, i32 0
  store ptr %28, ptr %7, align 8, !tbaa !7
  %29 = load ptr, ptr %7, align 8, !tbaa !7
  %30 = call i32 @lv_ll_get_len(ptr noundef %29)
  %31 = load ptr, ptr %4, align 8, !tbaa !7
  %32 = getelementptr inbounds nuw %struct._lv_font_manager_recycle_t, ptr %31, i32 0, i32 1
  %33 = load i32, ptr %32, align 8, !tbaa !9
  %34 = icmp uge i32 %30, %33
  br i1 %34, label %35, label %40

35:                                               ; preds = %26
  br label %36

36:                                               ; preds = %35
  br label %37

37:                                               ; preds = %36
  br label %38

38:                                               ; preds = %37
  %39 = load ptr, ptr %4, align 8, !tbaa !7
  call void @lv_font_manager_recycle_remove_tail(ptr noundef %39)
  br label %40

40:                                               ; preds = %38, %26
  call void @llvm.lifetime.start.p0(i64 8, ptr %8) #5
  %41 = load ptr, ptr %7, align 8, !tbaa !7
  %42 = call ptr @lv_ll_ins_head(ptr noundef %41)
  store ptr %42, ptr %8, align 8, !tbaa !7
  br label %43

43:                                               ; preds = %40
  %44 = load ptr, ptr %8, align 8, !tbaa !7
  %45 = icmp ne ptr %44, null
  br i1 %45, label %52, label %46

46:                                               ; preds = %43
  br label %47

47:                                               ; preds = %46
  br label %48

48:                                               ; preds = %47
  br label %49

49:                                               ; preds = %48
  br label %50

50:                                               ; preds = %51, %49
  br label %51

51:                                               ; preds = %50
  br label %50

52:                                               ; preds = %43
  br label %53

53:                                               ; preds = %52
  br label %54

54:                                               ; preds = %53
  %55 = load ptr, ptr %8, align 8, !tbaa !7
  call void @lv_memzero(ptr noundef %55, i64 noundef 64)
  %56 = load ptr, ptr %8, align 8, !tbaa !7
  %57 = getelementptr inbounds nuw %struct.lv_font_recycle_t, ptr %56, i32 0, i32 1
  %58 = getelementptr inbounds [32 x i8], ptr %57, i64 0, i64 0
  %59 = load ptr, ptr %6, align 8, !tbaa !7
  %60 = getelementptr inbounds nuw %struct.lv_freetype_info_t, ptr %59, i32 0, i32 0
  %61 = load ptr, ptr %60, align 8, !tbaa !18
  %62 = call ptr @lv_strncpy(ptr noundef %58, ptr noundef %61, i64 noundef 32)
  %63 = load ptr, ptr %8, align 8, !tbaa !7
  %64 = getelementptr inbounds nuw %struct.lv_font_recycle_t, ptr %63, i32 0, i32 1
  %65 = getelementptr inbounds nuw [32 x i8], ptr %64, i64 0, i64 31
  store i8 0, ptr %65, align 1, !tbaa !19
  %66 = load ptr, ptr %5, align 8, !tbaa !7
  %67 = load ptr, ptr %8, align 8, !tbaa !7
  %68 = getelementptr inbounds nuw %struct.lv_font_recycle_t, ptr %67, i32 0, i32 2
  store ptr %66, ptr %68, align 8, !tbaa !14
  %69 = load ptr, ptr %8, align 8, !tbaa !7
  %70 = getelementptr inbounds nuw %struct.lv_font_recycle_t, ptr %69, i32 0, i32 0
  %71 = load ptr, ptr %6, align 8, !tbaa !7
  call void @llvm.memcpy.p0.p0.i64(ptr align 8 %70, ptr align 8 %71, i64 24, i1 false), !tbaa.struct !20
  %72 = load ptr, ptr %8, align 8, !tbaa !7
  %73 = getelementptr inbounds nuw %struct.lv_font_recycle_t, ptr %72, i32 0, i32 1
  %74 = getelementptr inbounds [32 x i8], ptr %73, i64 0, i64 0
  %75 = load ptr, ptr %8, align 8, !tbaa !7
  %76 = getelementptr inbounds nuw %struct.lv_font_recycle_t, ptr %75, i32 0, i32 0
  %77 = getelementptr inbounds nuw %struct.lv_freetype_info_t, ptr %76, i32 0, i32 0
  store ptr %74, ptr %77, align 8, !tbaa !21
  br label %78

78:                                               ; preds = %54
  br label %79

79:                                               ; preds = %78
  br label %80

80:                                               ; preds = %79
  call void @llvm.lifetime.end.p0(i64 8, ptr %8) #5
  call void @llvm.lifetime.end.p0(i64 8, ptr %7) #5
  ret void
}