; Function Attrs: nounwind uwtable
define void @lv_font_manager_recycle_set_reuse(ptr noundef %0, ptr noundef %1, ptr noundef readonly %2) local_unnamed_addr #0 {
  %.not = icmp eq ptr %0, null
  br i1 %.not, label %.preheader, label %4

.preheader:                                       ; preds = %3, %.preheader
  br label %.preheader

4:                                                ; preds = %3
  %.not20 = icmp eq ptr %2, null
  br i1 %.not20, label %.preheader23, label %5

.preheader23:                                     ; preds = %4, %.preheader23
  br label %.preheader23

5:                                                ; preds = %4
  %6 = tail call i32 @lv_ll_get_len(ptr noundef nonnull %0) #3
  %7 = getelementptr inbounds nuw i8, ptr %0, i64 24
  %8 = load i32, ptr %7, align 8, !tbaa !3
  %.not21 = icmp ult i32 %6, %8
  br i1 %.not21, label %13, label %9

9:                                                ; preds = %5
  %10 = tail call ptr @lv_ll_get_tail(ptr noundef nonnull %0) #3
  %.not.i = icmp eq ptr %10, null
  br i1 %.not.i, label %.preheader.i, label %lv_font_manager_recycle_remove_tail.exit

.preheader.i:                                     ; preds = %9, %.preheader.i
  br label %.preheader.i

lv_font_manager_recycle_remove_tail.exit:         ; preds = %9
  %11 = getelementptr inbounds nuw i8, ptr %10, i64 56
  %12 = load ptr, ptr %11, align 8, !tbaa !10
  tail call void @lv_freetype_font_delete(ptr noundef %12) #3
  tail call void @lv_ll_remove(ptr noundef nonnull %0, ptr noundef nonnull %10) #3
  tail call void @lv_free(ptr noundef nonnull %10) #3
  br label %13

13:                                               ; preds = %lv_font_manager_recycle_remove_tail.exit, %5
  %14 = tail call ptr @lv_ll_ins_head(ptr noundef nonnull %0) #3
  %.not22 = icmp eq ptr %14, null
  br i1 %.not22, label %.preheader24, label %15

.preheader24:                                     ; preds = %13, %.preheader24
  br label %.preheader24

15:                                               ; preds = %13
  tail call void @lv_memset(ptr noundef nonnull %14, i8 noundef zeroext 0, i64 noundef 64) #3
  %16 = getelementptr inbounds nuw i8, ptr %14, i64 24
  %17 = load ptr, ptr %2, align 8, !tbaa !16
  %18 = tail call ptr @lv_strncpy(ptr noundef nonnull %16, ptr noundef %17, i64 noundef 32) #3
  %19 = getelementptr inbounds nuw i8, ptr %14, i64 55
  store i8 0, ptr %19, align 1, !tbaa !17
  %20 = getelementptr inbounds nuw i8, ptr %14, i64 56
  store ptr %1, ptr %20, align 8, !tbaa !10
  tail call void @llvm.memcpy.p0.p0.i64(ptr noundef nonnull align 8 dereferenceable(24) %14, ptr noundef nonnull align 8 dereferenceable(24) %2, i64 24, i1 false), !tbaa.struct !18
  store ptr %16, ptr %14, align 8, !tbaa !21
  ret void
}